Certificate:
    Data:
        Version: 3 (0x2)
        Serial Number:
            fb:84:f4:b6:e5:ec:73:5b:cf:5b:88:52:c7:17:a6:89
        Signature Algorithm: ecdsa-with-SHA256
        Issuer: CN=cn_SpIJdTkEUSAAPwC5
        Validity
            Not Before: Jan 22 05:58:36 2024 GMT
            Not After : Apr 26 05:58:36 2026 GMT
        Subject: CN=server_Kl0Weq9bXOQfEThX
        Subject Public Key Info:
            Public Key Algorithm: id-ecPublicKey
                Public-Key: (256 bit)
                pub:
                    04:88:da:69:ee:73:ab:9b:b9:80:c6:19:e9:1a:72:
                    19:1c:12:06:d8:ae:a3:45:4e:1f:86:3a:39:5c:29:
                    7d:c8:23:a0:e6:6b:05:8a:46:e9:2d:b3:79:40:58:
                    17:df:ce:46:9d:05:fc:af:56:19:88:b2:6d:e8:db:
                    5b:33:6b:9a:0b
                ASN1 OID: prime256v1
                NIST CURVE: P-256
        X509v3 extensions:
            X509v3 Basic Constraints: 
                CA:FALSE
            X509v3 Subject Key Identifier: 
                26:5F:A5:8F:A5:D7:50:C1:80:F3:81:1A:9A:01:37:32:70:03:65:8E
            X509v3 Authority Key Identifier: 
                keyid:82:6D:6F:DE:84:5D:19:4C:A5:E5:37:77:3A:39:F4:13:4C:65:4C:AC
                DirName:/CN=cn_SpIJdTkEUSAAPwC5
                serial:2A:3B:1D:60:57:5A:4E:CF:C4:FE:07:BF:A5:03:23:D2:8B:EB:91:CA

            X509v3 Extended Key Usage: 
                TLS Web Server Authentication
            X509v3 Key Usage: 
                Digital Signature, Key Encipherment
            X509v3 Subject Alternative Name: 
                DNS:server_Kl0Weq9bXOQfEThX
    Signature Algorithm: ecdsa-with-SHA256
         30:45:02:20:54:ba:cf:2f:f0:8c:c8:34:fe:c3:76:61:66:11:
         72:c8:88:22:52:6c:39:e2:84:6e:f4:ec:95:bb:22:8d:1d:08:
         02:21:00:ae:ba:4c:f5:7c:ff:3f:77:26:ff:81:0b:dc:d0:c5:
         b5:bc:a9:48:be:00:fe:a0:73:ed:b2:97:35:d5:cb:93:37
-----BEGIN CERTIFICATE-----
MIICDjCCAbSgAwIBAgIRAPuE9Lbl7HNbz1uIUscXpokwCgYIKoZIzj0EAwIwHjEc
MBoGA1UEAwwTY25fU3BJSmRUa0VVU0FBUHdDNTAeFw0yNDAxMjIwNTU4MzZaFw0y
NjA0MjYwNTU4MzZaMCIxIDAeBgNVBAMMF3NlcnZlcl9LbDBXZXE5YlhPUWZFVGhY
MFkwEwYHKoZIzj0CAQYIKoZIzj0DAQcDQgAEiNpp7nOrm7mAxhnpGnIZHBIG2K6j
RU4fhjo5XCl9yCOg5msFikbpLbN5QFgX385GnQX8r1YZiLJt6NtbM2uaC6OBzjCB
yzAJBgNVHRMEAjAAMB0GA1UdDgQWBBQmX6WPpddQwYDzgRqaATcycANljjBZBgNV
HSMEUjBQgBSCbW/ehF0ZTKXlN3c6OfQTTGVMrKEipCAwHjEcMBoGA1UEAwwTY25f
U3BJSmRUa0VVU0FBUHdDNYIUKjsdYFdaTs/E/ge/pQMj0ovrkcowEwYDVR0lBAww
CgYIKwYBBQUHAwEwCwYDVR0PBAQDAgWgMCIGA1UdEQQbMBmCF3NlcnZlcl9LbDBX
ZXE5YlhPUWZFVGhYMAoGCCqGSM49BAMCA0gAMEUCIFS6zy/wjMg0/sN2YWYRcsiI
IlJsOeKEbvTslbsijR0IAiEArrpM9Xz/P3cm/4EL3NDFtbypSL4A/qBz7bKXNdXL
kzc=
-----END CERTIFICATE-----
